; ModuleID = '57/2557.c'
source_filename = "57/2557.c"
target datalayout = "e-m:e-p270:32:32-p271:32:32-p272:64:64-i64:64-f80:128-n8:16:32:64-S128"
target triple = "x86_64-pc-linux-gnu"

@.str = private unnamed_addr constant [3 x i8] c"%d\00", align 1
@.str.1 = private unnamed_addr constant [3 x i8] c"%s\00", align 1
@.str.2 = private unnamed_addr constant [3 x i8] c"%c\00", align 1
@.str.3 = private unnamed_addr constant [2 x i8] c"\0A\00", align 1

; Function Attrs: noinline nounwind uwtable
define dso_local void @main() #0 {
  %1 = alloca [100 x i8], align 16
  %2 = alloca [100 x i8], align 16
  %3 = alloca i32, align 4
  %4 = alloca i32, align 4
  %5 = alloca i32, align 4
  %6 = alloca i32, align 4
  %7 = alloca i32, align 4
  %8 = call i32 (i8*, ...) @__isoc99_scanf(i8* getelementptr inbounds ([3 x i8], [3 x i8]* @.str, i64 0, i64 0), i32* %6)
  store i32 0, i32* %7, align 4
  br label %9

9:                                                ; preds = %71, %0
  %10 = load i32, i32* %7, align 4
  %11 = load i32, i32* %6, align 4
  %12 = sub nsw i32 %11, 1
  %13 = icmp sle i32 %10, %12
  br i1 %13, label %14, label %74

14:                                               ; preds = %9
  %15 = getelementptr inbounds [100 x i8], [100 x i8]* %1, i64 0, i64 0
  %16 = call i32 (i8*, ...) @__isoc99_scanf(i8* getelementptr inbounds ([3 x i8], [3 x i8]* @.str.1, i64 0, i64 0), i8* %15)
  %17 = getelementptr inbounds [100 x i8], [100 x i8]* %1, i64 0, i64 0
  %18 = call i64 @strlen(i8* %17) #3
  %19 = trunc i64 %18 to i32
  store i32 %19, i32* %3, align 4
  store i32 0, i32* %4, align 4
  br label %20

20:                                               ; preds = %36, %14
  %21 = load i32, i32* %4, align 4
  %22 = load i32, i32* %3, align 4
  %23 = sub nsw i32 %22, 1
  %24 = icmp sle i32 %21, %23
  br i1 %24, label %25, label %39

25:                                               ; preds = %20
  %26 = load i32, i32* %3, align 4
  %27 = sub nsw i32 %26, 1
  %28 = load i32, i32* %4, align 4
  %29 = sub nsw i32 %27, %28
  %30 = sext i32 %29 to i64
  %31 = getelementptr inbounds [100 x i8], [100 x i8]* %1, i64 0, i64 %30
  %32 = load i8, i8* %31, align 1
  %33 = load i32, i32* %4, align 4
  %34 = sext i32 %33 to i64
  %35 = getelementptr inbounds [100 x i8], [100 x i8]* %2, i64 0, i64 %34
  store i8 %32, i8* %35, align 1
  br label %36

36:                                               ; preds = %25
  %37 = load i32, i32* %4, align 4
  %38 = add nsw i32 %37, 1
  store i32 %38, i32* %4, align 4
  br label %20

39:                                               ; preds = %20
  %40 = load i32, i32* %3, align 4
  %41 = sub nsw i32 %40, 3
  store i32 %41, i32* %5, align 4
  %42 = getelementptr inbounds [100 x i8], [100 x i8]* %2, i64 0, i64 2
  %43 = load i8, i8* %42, align 2
  %44 = sext i8 %43 to i32
  %45 = icmp eq i32 %44, 105
  br i1 %45, label %46, label %54

46:                                               ; preds = %39
  %47 = getelementptr inbounds [100 x i8], [100 x i8]* %2, i64 0, i64 1
  %48 = load i8, i8* %47, align 1
  %49 = sext i8 %48 to i32
  %50 = icmp eq i32 %49, 110
  br i1 %50, label %51, label %54

51:                                               ; preds = %46
  %52 = load i32, i32* %3, align 4
  %53 = sub nsw i32 %52, 4
  store i32 %53, i32* %5, align 4
  br label %54

54:                                               ; preds = %51, %46, %39
  store i32 0, i32* %4, align 4
  br label %55

55:                                               ; preds = %66, %54
  %56 = load i32, i32* %4, align 4
  %57 = load i32, i32* %5, align 4
  %58 = icmp sle i32 %56, %57
  br i1 %58, label %59, label %69

59:                                               ; preds = %55
  %60 = load i32, i32* %4, align 4
  %61 = sext i32 %60 to i64
  %62 = getelementptr inbounds [100 x i8], [100 x i8]* %1, i64 0, i64 %61
  %63 = load i8, i8* %62, align 1
  %64 = sext i8 %63 to i32
  %65 = call i32 (i8*, ...) @printf(i8* getelementptr inbounds ([3 x i8], [3 x i8]* @.str.2, i64 0, i64 0), i32 %64)
  br label %66

66:                                               ; preds = %59
  %67 = load i32, i32* %4, align 4
  %68 = add nsw i32 %67, 1
  store i32 %68, i32* %4, align 4
  br label %55

69:                                               ; preds = %55
  %70 = call i32 (i8*, ...) @printf(i8* getelementptr inbounds ([2 x i8], [2 x i8]* @.str.3, i64 0, i64 0))
  br label %71

71:                                               ; preds = %69
  %72 = load i32, i32* %7, align 4
  %73 = add nsw i32 %72, 1
  store i32 %73, i32* %7, align 4
  br label %9

74:                                               ; preds = %9
  ret void
}

declare dso_local i32 @__isoc99_scanf(i8*, ...) #1

; Function Attrs: nounwind readonly
declare dso_local i64 @strlen(i8*) #2

declare dso_local i32 @printf(i8*, ...) #1


!llvm.module.flags = !{!0}
!llvm.ident = !{!1}

!0 = !{i32 1, !"wchar_size", i32 4}
!1 = !{!"clang version 10.0.0-4ubuntu1 "}
